target datalayout = "e-m:e-p270:32:32-p271:32:32-p272:64:64-i64:64-i128:128-f80:128-n8:16:32:64-S128"
target triple = "x86_64-pc-linux-gnu"

%struct.formnode = type { i16, i16, i16, i32, i32, i32, i32, i16, i16, i16, i32, ptr, ptr, ptr, ptr, ptr, ptr, ptr, ptr, ptr, ptr, ptr }

@_nc_Default_Form = dso_local global ptr @default_form, align 8

; Function Attrs: nounwind uwtable
define dso_local i32 @field_count(ptr noundef %0) #0 {
  %2 = alloca ptr, align 8
  store ptr %0, ptr %2, align 8
  %3 = load ptr, ptr %2, align 8
  %4 = icmp ne ptr %3, null
  br i1 %4, label %5, label %7

5:                                                ; preds = %1
  %6 = load ptr, ptr %2, align 8
  br label %9

7:                                                ; preds = %1
  %8 = load ptr, ptr @_nc_Default_Form, align 8
  br label %9

9:                                                ; preds = %7, %5
  %10 = phi ptr [ %6, %5 ], [ %8, %7 ]
  store ptr %10, ptr %2, align 8
  %11 = getelementptr inbounds %struct.formnode, ptr %10, i32 0, i32 7
  %12 = load i16, ptr %11, align 8
  %13 = sext i16 %12 to i32
  ret i32 %13
}