; Function Attrs: mustprogress nofree norecurse nosync nounwind willreturn memory(read, inaccessiblemem: none) uwtable
define dso_local range(i32 -32768, 32768) i32 @field_count(ptr noundef readonly %0) local_unnamed_addr #6 {
  %.not = icmp eq ptr %0, null
  %2 = load ptr, ptr @_nc_Default_Form, align 8
  %3 = select i1 %.not, ptr %2, ptr %0
  %4 = getelementptr inbounds nuw i8, ptr %3, i64 24
  %5 = load i16, ptr %4, align 8
  %6 = sext i16 %5 to i32
  ret i32 %6
}